target datalayout = "e-m:e-p270:32:32-p271:32:32-p272:64:64-i64:64-i128:128-f80:128-n8:16:32:64-S128"
target triple = "x86_64-pc-linux-gnu"

%struct.H5C_cache_entry_t = type { ptr, i64, i64, ptr, i8, ptr, i8, i8, i8, i8, i32, i8, i8, i8, i8, i8, i32, ptr, i32, i32, i32, i32, i32, i8, i8, ptr, ptr, ptr, ptr, ptr, ptr, i8, i32, i8, i64, ptr, i64, i64, i32, i8, i32, i32, i8, ptr, ptr, ptr }
%struct.H5FA_hdr_t = type { %struct.H5C_cache_entry_t, %struct.H5FA_create_t, i64, %struct.H5FA_stat_t, i64, i64, i64, ptr, i64, i8, i64, i64, ptr, i8, ptr, ptr }
%struct.H5FA_create_t = type { ptr, i8, i8, i64 }
%struct.H5FA_stat_t = type { i64, i64, i64 }
%struct.H5FA_class_t = type { i32, ptr, i64, ptr, ptr, ptr, ptr, ptr, ptr, ptr, ptr }
%struct.H5FA_dbk_page_t = type { %struct.H5C_cache_entry_t, ptr, ptr, ptr, i64, i64, i64 }

@H5FA_init_g = external global i8, align 1
@H5_libterm_g = external global i8, align 1
@.str.3 = private unnamed_addr constant [103 x i8] c"generated/home/dtcxzyw/WorkSpace/Projects/compilers/llvm-opt-benchmark/bench/hdf5/hdf5/src/H5FAcache.c\00", align 1
@H5E_FARRAY_g = external global i64, align 8
@H5E_CANTENCODE_g = external global i64, align 8
@.str.23 = private unnamed_addr constant [39 x i8] c"can't encode fixed array data elements\00", align 1
@__func__.H5FA__cache_dblk_page_serialize = private unnamed_addr constant [32 x i8] c"H5FA__cache_dblk_page_serialize\00", align 1

; Function Attrs: nounwind uwtable
define internal i32 @H5FA__cache_dblk_page_serialize(ptr noundef %0, ptr noundef %1, i64 noundef %2, ptr noundef %3) #0 {
  %5 = alloca ptr, align 8
  %6 = alloca ptr, align 8
  %7 = alloca i64, align 8
  %8 = alloca ptr, align 8
  %9 = alloca ptr, align 8
  %10 = alloca ptr, align 8
  %11 = alloca i32, align 4
  %12 = alloca i32, align 4
  %13 = alloca i8, align 1
  store ptr %0, ptr %5, align 8, !tbaa !58
  store ptr %1, ptr %6, align 8, !tbaa !3
  store i64 %2, ptr %7, align 8, !tbaa !19
  store ptr %3, ptr %8, align 8, !tbaa !3
  call void @llvm.lifetime.start.p0(i64 8, ptr %9) #7
  %14 = load ptr, ptr %8, align 8, !tbaa !3
  store ptr %14, ptr %9, align 8, !tbaa !88
  call void @llvm.lifetime.start.p0(i64 8, ptr %10) #7
  %15 = load ptr, ptr %6, align 8, !tbaa !3
  store ptr %15, ptr %10, align 8, !tbaa !20
  call void @llvm.lifetime.start.p0(i64 4, ptr %11) #7
  call void @llvm.lifetime.start.p0(i64 4, ptr %12) #7
  store i32 0, ptr %12, align 4, !tbaa !22
  call void @llvm.lifetime.start.p0(i64 1, ptr %13) #7
  store i8 0, ptr %13, align 1, !tbaa !11
  %16 = load i8, ptr @H5FA_init_g, align 1, !tbaa !11, !range !13, !noundef !14
  %17 = trunc i8 %16 to i1
  br i1 %17, label %22, label %18

18:                                               ; preds = %4
  %19 = load i8, ptr @H5_libterm_g, align 1, !tbaa !11, !range !13, !noundef !14
  %20 = trunc i8 %19 to i1
  %21 = xor i1 %20, true
  br label %22

22:                                               ; preds = %18, %4
  %23 = phi i1 [ true, %4 ], [ %21, %18 ]
  %24 = xor i1 %23, true
  %25 = xor i1 %24, true
  %26 = zext i1 %25 to i32
  %27 = sext i32 %26 to i64
  %28 = call i64 @llvm.expect.i64(i64 %27, i64 1)
  %29 = icmp ne i64 %28, 0
  br i1 %29, label %30, label %124

30:                                               ; preds = %22
  %31 = load ptr, ptr %9, align 8, !tbaa !88
  %32 = getelementptr inbounds nuw %struct.H5FA_dbk_page_t, ptr %31, i32 0, i32 2
  %33 = load ptr, ptr %32, align 8, !tbaa !95
  %34 = getelementptr inbounds nuw %struct.H5FA_hdr_t, ptr %33, i32 0, i32 1
  %35 = getelementptr inbounds nuw %struct.H5FA_create_t, ptr %34, i32 0, i32 0
  %36 = load ptr, ptr %35, align 8, !tbaa !43
  %37 = getelementptr inbounds nuw %struct.H5FA_class_t, ptr %36, i32 0, i32 6
  %38 = load ptr, ptr %37, align 8, !tbaa !81
  %39 = load ptr, ptr %10, align 8, !tbaa !20
  %40 = load ptr, ptr %9, align 8, !tbaa !88
  %41 = getelementptr inbounds nuw %struct.H5FA_dbk_page_t, ptr %40, i32 0, i32 1
  %42 = load ptr, ptr %41, align 8, !tbaa !93
  %43 = load ptr, ptr %9, align 8, !tbaa !88
  %44 = getelementptr inbounds nuw %struct.H5FA_dbk_page_t, ptr %43, i32 0, i32 6
  %45 = load i64, ptr %44, align 8, !tbaa !96
  %46 = load ptr, ptr %9, align 8, !tbaa !88
  %47 = getelementptr inbounds nuw %struct.H5FA_dbk_page_t, ptr %46, i32 0, i32 2
  %48 = load ptr, ptr %47, align 8, !tbaa !95
  %49 = getelementptr inbounds nuw %struct.H5FA_hdr_t, ptr %48, i32 0, i32 12
  %50 = load ptr, ptr %49, align 8, !tbaa !79
  %51 = call i32 %38(ptr noundef %39, ptr noundef %42, i64 noundef %45, ptr noundef %50)
  %52 = icmp slt i32 %51, 0
  br i1 %52, label %53, label %72

53:                                               ; preds = %30
  br label %54

54:                                               ; preds = %53
  br label %55

55:                                               ; preds = %54
  br label %56

56:                                               ; preds = %55
  %57 = load i64, ptr @H5E_FARRAY_g, align 8, !tbaa !19
  %58 = load i64, ptr @H5E_CANTENCODE_g, align 8, !tbaa !19
  %59 = call i32 (ptr, ptr, i32, i64, i64, ptr, ...) @H5E_printf_stack(ptr noundef @.str.3, ptr noundef @__func__.H5FA__cache_dblk_page_serialize, i32 noundef 1134, i64 noundef %57, i64 noundef %58, ptr noundef @.str.23)
  br label %60

60:                                               ; preds = %56
  br label %61

61:                                               ; preds = %60
  store i8 1, ptr %13, align 1, !tbaa !11
  %62 = load i8, ptr %13, align 1, !tbaa !11, !range !13, !noundef !14
  %63 = trunc i8 %62 to i1
  %64 = zext i1 %63 to i8
  store i8 %64, ptr %13, align 1, !tbaa !11
  br label %65

65:                                               ; preds = %61
  br label %66

66:                                               ; preds = %65
  br label %67

67:                                               ; preds = %66
  store i32 -1, ptr %12, align 4, !tbaa !22
  br label %123

68:                                               ; No predecessors!
  br label %69

69:                                               ; preds = %68
  br label %70

70:                                               ; preds = %69
  br label %71

71:                                               ; preds = %70
  br label %72

72:                                               ; preds = %71, %30
  %73 = load ptr, ptr %9, align 8, !tbaa !88
  %74 = getelementptr inbounds nuw %struct.H5FA_dbk_page_t, ptr %73, i32 0, i32 6
  %75 = load i64, ptr %74, align 8, !tbaa !96
  %76 = load ptr, ptr %9, align 8, !tbaa !88
  %77 = getelementptr inbounds nuw %struct.H5FA_dbk_page_t, ptr %76, i32 0, i32 2
  %78 = load ptr, ptr %77, align 8, !tbaa !95
  %79 = getelementptr inbounds nuw %struct.H5FA_hdr_t, ptr %78, i32 0, i32 1
  %80 = getelementptr inbounds nuw %struct.H5FA_create_t, ptr %79, i32 0, i32 1
  %81 = load i8, ptr %80, align 8, !tbaa !44
  %82 = zext i8 %81 to i64
  %83 = mul i64 %75, %82
  %84 = load ptr, ptr %10, align 8, !tbaa !20
  %85 = getelementptr inbounds nuw i8, ptr %84, i64 %83
  store ptr %85, ptr %10, align 8, !tbaa !20
  %86 = load ptr, ptr %6, align 8, !tbaa !3
  %87 = load ptr, ptr %10, align 8, !tbaa !20
  %88 = load ptr, ptr %6, align 8, !tbaa !3
  %89 = ptrtoint ptr %87 to i64
  %90 = ptrtoint ptr %88 to i64
  %91 = sub i64 %89, %90
  %92 = call i32 @H5_checksum_metadata(ptr noundef %86, i64 noundef %91, i32 noundef 0)
  store i32 %92, ptr %11, align 4, !tbaa !22
  br label %93

93:                                               ; preds = %72
  %94 = load i32, ptr %11, align 4, !tbaa !22
  %95 = and i32 %94, 255
  %96 = trunc i32 %95 to i8
  %97 = load ptr, ptr %10, align 8, !tbaa !20
  store i8 %96, ptr %97, align 1, !tbaa !41
  %98 = load ptr, ptr %10, align 8, !tbaa !20
  %99 = getelementptr inbounds nuw i8, ptr %98, i32 1
  store ptr %99, ptr %10, align 8, !tbaa !20
  %100 = load i32, ptr %11, align 4, !tbaa !22
  %101 = lshr i32 %100, 8
  %102 = and i32 %101, 255
  %103 = trunc i32 %102 to i8
  %104 = load ptr, ptr %10, align 8, !tbaa !20
  store i8 %103, ptr %104, align 1, !tbaa !41
  %105 = load ptr, ptr %10, align 8, !tbaa !20
  %106 = getelementptr inbounds nuw i8, ptr %105, i32 1
  store ptr %106, ptr %10, align 8, !tbaa !20
  %107 = load i32, ptr %11, align 4, !tbaa !22
  %108 = lshr i32 %107, 16
  %109 = and i32 %108, 255
  %110 = trunc i32 %109 to i8
  %111 = load ptr, ptr %10, align 8, !tbaa !20
  store i8 %110, ptr %111, align 1, !tbaa !41
  %112 = load ptr, ptr %10, align 8, !tbaa !20
  %113 = getelementptr inbounds nuw i8, ptr %112, i32 1
  store ptr %113, ptr %10, align 8, !tbaa !20
  %114 = load i32, ptr %11, align 4, !tbaa !22
  %115 = lshr i32 %114, 24
  %116 = and i32 %115, 255
  %117 = trunc i32 %116 to i8
  %118 = load ptr, ptr %10, align 8, !tbaa !20
  store i8 %117, ptr %118, align 1, !tbaa !41
  %119 = load ptr, ptr %10, align 8, !tbaa !20
  %120 = getelementptr inbounds nuw i8, ptr %119, i32 1
  store ptr %120, ptr %10, align 8, !tbaa !20
  br label %121

121:                                              ; preds = %93
  br label %122

122:                                              ; preds = %121
  br label %123

123:                                              ; preds = %122, %67
  br label %124

124:                                              ; preds = %123, %22
  %125 = load i32, ptr %12, align 4, !tbaa !22
  call void @llvm.lifetime.end.p0(i64 1, ptr %13) #7
  call void @llvm.lifetime.end.p0(i64 4, ptr %12) #7
  call void @llvm.lifetime.end.p0(i64 4, ptr %11) #7
  call void @llvm.lifetime.end.p0(i64 8, ptr %10) #7
  call void @llvm.lifetime.end.p0(i64 8, ptr %9) #7
  ret i32 %125
}